; Function Attrs: mustprogress uwtable
define void @_ZN8LightGBM7Linkers12PrintLinkersEv(ptr noundef nonnull readonly align 8 captures(none) dereferenceable(304) %0) local_unnamed_addr #3 align 2 {
  %2 = getelementptr inbounds nuw i8, ptr %0, i64 4
  %3 = load i32, ptr %2, align 4, !tbaa !65
  %4 = icmp sgt i32 %3, 0
  br i1 %4, label %.lr.ph, label %._crit_edge

.lr.ph:                                           ; preds = %1
  %5 = getelementptr inbounds nuw i8, ptr %0, i64 272
  br label %6

._crit_edge:                                      ; preds = %_ZN8LightGBM7Linkers11CheckLinkerEi.exit.thread, %1
  ret void

6:                                                ; preds = %.lr.ph, %_ZN8LightGBM7Linkers11CheckLinkerEi.exit.thread
  %7 = phi i32 [ %3, %.lr.ph ], [ %14, %_ZN8LightGBM7Linkers11CheckLinkerEi.exit.thread ]
  %indvars.iv = phi i64 [ 0, %.lr.ph ], [ %indvars.iv.next, %_ZN8LightGBM7Linkers11CheckLinkerEi.exit.thread ]
  %8 = load ptr, ptr %5, align 8, !tbaa !101
  %9 = getelementptr inbounds nuw %"class.std::unique_ptr", ptr %8, i64 %indvars.iv
  %10 = load ptr, ptr %9, align 8, !tbaa !91
  %.not.i.i = icmp eq ptr %10, null
  br i1 %.not.i.i, label %_ZN8LightGBM7Linkers11CheckLinkerEi.exit.thread, label %_ZN8LightGBM7Linkers11CheckLinkerEi.exit

_ZN8LightGBM7Linkers11CheckLinkerEi.exit:         ; preds = %6
  %11 = load i32, ptr %10, align 4, !tbaa !97
  %.not = icmp eq i32 %11, -1
  br i1 %.not, label %_ZN8LightGBM7Linkers11CheckLinkerEi.exit.thread, label %12

12:                                               ; preds = %_ZN8LightGBM7Linkers11CheckLinkerEi.exit
  %13 = trunc nuw nsw i64 %indvars.iv to i32
  tail call void (ptr, ...) @_ZN8LightGBM3Log4InfoEPKcz(ptr noundef nonnull @.str.43, i32 noundef %13)
  %.pre = load i32, ptr %2, align 4, !tbaa !65
  br label %_ZN8LightGBM7Linkers11CheckLinkerEi.exit.thread

_ZN8LightGBM7Linkers11CheckLinkerEi.exit.thread:  ; preds = %6, %_ZN8LightGBM7Linkers11CheckLinkerEi.exit, %12
  %14 = phi i32 [ %7, %6 ], [ %7, %_ZN8LightGBM7Linkers11CheckLinkerEi.exit ], [ %.pre, %12 ]
  %indvars.iv.next = add nuw nsw i64 %indvars.iv, 1
  %15 = sext i32 %14 to i64
  %16 = icmp slt i64 %indvars.iv.next, %15
  br i1 %16, label %6, label %._crit_edge, !llvm.loop !175
}